target datalayout = "e-m:e-p270:32:32-p271:32:32-p272:64:64-i64:64-i128:128-f80:128-n8:16:32:64-S128"
target triple = "x86_64-pc-linux-gnu"

%"class.folly::test::ThreadTimestamps" = type { %"class.std::vector" }
%"class.std::vector" = type { %"struct.std::_Vector_base" }
%"struct.std::_Vector_base" = type { %"struct.std::_Vector_base<folly::test::DSchedTimestamp, std::allocator<folly::test::DSchedTimestamp>>::_Vector_impl" }
%"struct.std::_Vector_base<folly::test::DSchedTimestamp, std::allocator<folly::test::DSchedTimestamp>>::_Vector_impl" = type { %"struct.std::_Vector_base<folly::test::DSchedTimestamp, std::allocator<folly::test::DSchedTimestamp>>::_Vector_impl_data" }
%"struct.std::_Vector_base<folly::test::DSchedTimestamp, std::allocator<folly::test::DSchedTimestamp>>::_Vector_impl_data" = type { ptr, ptr, ptr }
%"class.folly::test::DSchedTimestamp" = type { i64 }
%"struct.folly::test::DSchedThreadId" = type { i32 }

; Function Attrs: mustprogress nounwind uwtable
define linkonce_odr noundef zeroext i1 @_ZNK5folly4test15DSchedTimestamp17atLeastAsRecentAsERKS1_(ptr noundef nonnull align 8 dereferenceable(8) %0, ptr noundef nonnull align 8 dereferenceable(8) %1) #1 comdat align 2 {
  %3 = alloca ptr, align 8
  %4 = alloca ptr, align 8
  store ptr %0, ptr %3, align 8, !tbaa !100
  store ptr %1, ptr %4, align 8, !tbaa !100
  %5 = load ptr, ptr %3, align 8
  %6 = getelementptr inbounds nuw %"class.folly::test::DSchedTimestamp", ptr %5, i32 0, i32 0
  %7 = load i64, ptr %6, align 8, !tbaa !101
  %8 = load ptr, ptr %4, align 8, !tbaa !100
  %9 = getelementptr inbounds nuw %"class.folly::test::DSchedTimestamp", ptr %8, i32 0, i32 0
  %10 = load i64, ptr %9, align 8, !tbaa !101
  %11 = icmp uge i64 %7, %10
  ret i1 %11
}

; Function Attrs: mustprogress nounwind uwtable
define linkonce_odr noundef nonnull align 8 dereferenceable(8) ptr @_ZNKSt6vectorIN5folly4test15DSchedTimestampESaIS2_EEixEm(ptr noundef nonnull align 8 dereferenceable(24) %0, i64 noundef %1) #1 comdat align 2 {
  %3 = alloca ptr, align 8
  %4 = alloca i64, align 8
  store ptr %0, ptr %3, align 8, !tbaa !94
  store i64 %1, ptr %4, align 8, !tbaa !83
  %5 = load ptr, ptr %3, align 8
  %6 = getelementptr inbounds nuw %"struct.std::_Vector_base", ptr %5, i32 0, i32 0
  %7 = getelementptr inbounds nuw %"struct.std::_Vector_base<folly::test::DSchedTimestamp, std::allocator<folly::test::DSchedTimestamp>>::_Vector_impl_data", ptr %6, i32 0, i32 0
  %8 = load ptr, ptr %7, align 8, !tbaa !99
  %9 = load i64, ptr %4, align 8, !tbaa !83
  %10 = getelementptr inbounds nuw %"class.folly::test::DSchedTimestamp", ptr %8, i64 %9
  ret ptr %10
}

; Function Attrs: mustprogress nounwind uwtable
define linkonce_odr noundef i64 @_ZNKSt6vectorIN5folly4test15DSchedTimestampESaIS2_EE4sizeEv(ptr noundef nonnull align 8 dereferenceable(24) %0) #1 comdat align 2 {
  %2 = alloca ptr, align 8
  store ptr %0, ptr %2, align 8, !tbaa !94
  %3 = load ptr, ptr %2, align 8
  %4 = getelementptr inbounds nuw %"struct.std::_Vector_base", ptr %3, i32 0, i32 0
  %5 = getelementptr inbounds nuw %"struct.std::_Vector_base<folly::test::DSchedTimestamp, std::allocator<folly::test::DSchedTimestamp>>::_Vector_impl_data", ptr %4, i32 0, i32 1
  %6 = load ptr, ptr %5, align 8, !tbaa !96
  %7 = getelementptr inbounds nuw %"struct.std::_Vector_base", ptr %3, i32 0, i32 0
  %8 = getelementptr inbounds nuw %"struct.std::_Vector_base<folly::test::DSchedTimestamp, std::allocator<folly::test::DSchedTimestamp>>::_Vector_impl_data", ptr %7, i32 0, i32 0
  %9 = load ptr, ptr %8, align 8, !tbaa !99
  %10 = ptrtoint ptr %6 to i64
  %11 = ptrtoint ptr %9 to i64
  %12 = sub i64 %10, %11
  %13 = sdiv exact i64 %12, 8
  ret i64 %13
}

; Function Attrs: mustprogress uwtable
define noundef zeroext i1 @_ZNK5folly4test16ThreadTimestamps17atLeastAsRecentAsENS0_14DSchedThreadIdENS0_15DSchedTimestampE(ptr noundef nonnull align 8 dereferenceable(24) %0, i32 %1, i64 %2) #6 align 2 {
  %4 = alloca i1, align 1
  %5 = alloca %"struct.folly::test::DSchedThreadId", align 4
  %6 = alloca %"class.folly::test::DSchedTimestamp", align 8
  %7 = alloca ptr, align 8
  %8 = getelementptr inbounds nuw %"struct.folly::test::DSchedThreadId", ptr %5, i32 0, i32 0
  store i32 %1, ptr %8, align 4
  %9 = getelementptr inbounds nuw %"class.folly::test::DSchedTimestamp", ptr %6, i32 0, i32 0
  store i64 %2, ptr %9, align 8
  store ptr %0, ptr %7, align 8, !tbaa !91
  %10 = load ptr, ptr %7, align 8
  %11 = getelementptr inbounds nuw %"struct.folly::test::DSchedThreadId", ptr %5, i32 0, i32 0
  %12 = load i32, ptr %11, align 4, !tbaa !120
  %13 = zext i32 %12 to i64
  %14 = getelementptr inbounds nuw %"class.folly::test::ThreadTimestamps", ptr %10, i32 0, i32 0
  %15 = call noundef i64 @_ZNKSt6vectorIN5folly4test15DSchedTimestampESaIS2_EE4sizeEv(ptr noundef nonnull align 8 dereferenceable(24) %14) #2
  %16 = icmp uge i64 %13, %15
  br i1 %16, label %17, label %18

17:                                               ; preds = %3
  store i1 false, ptr %4, align 1
  br label %25

18:                                               ; preds = %3
  %19 = getelementptr inbounds nuw %"class.folly::test::ThreadTimestamps", ptr %10, i32 0, i32 0
  %20 = getelementptr inbounds nuw %"struct.folly::test::DSchedThreadId", ptr %5, i32 0, i32 0
  %21 = load i32, ptr %20, align 4, !tbaa !120
  %22 = zext i32 %21 to i64
  %23 = call noundef nonnull align 8 dereferenceable(8) ptr @_ZNKSt6vectorIN5folly4test15DSchedTimestampESaIS2_EEixEm(ptr noundef nonnull align 8 dereferenceable(24) %19, i64 noundef %22) #2
  %24 = call noundef zeroext i1 @_ZNK5folly4test15DSchedTimestamp17atLeastAsRecentAsERKS1_(ptr noundef nonnull align 8 dereferenceable(8) %23, ptr noundef nonnull align 8 dereferenceable(8) %6)
  store i1 %24, ptr %4, align 1
  br label %25

25:                                               ; preds = %18, %17
  %26 = load i1, ptr %4, align 1
  ret i1 %26
}