; Function Attrs: mustprogress nofree norecurse nosync nounwind willreturn memory(read, inaccessiblemem: none) uwtable
define noundef zeroext i1 @_ZNK5folly4test16ThreadTimestamps17atLeastAsRecentAsENS0_14DSchedThreadIdENS0_15DSchedTimestampE(ptr noundef nonnull readonly align 8 captures(none) dereferenceable(24) %0, i32 %1, i64 %2) local_unnamed_addr #13 align 2 {
  %4 = zext i32 %1 to i64
  %5 = getelementptr inbounds nuw i8, ptr %0, i64 8
  %6 = load ptr, ptr %5, align 8, !tbaa !27
  %7 = load ptr, ptr %0, align 8, !tbaa !30
  %8 = ptrtoint ptr %6 to i64
  %9 = ptrtoint ptr %7 to i64
  %10 = sub i64 %8, %9
  %11 = ashr exact i64 %10, 3
  %.not = icmp ugt i64 %11, %4
  br i1 %.not, label %12, label %16

12:                                               ; preds = %3
  %13 = getelementptr inbounds nuw %"class.folly::test::DSchedTimestamp", ptr %7, i64 %4
  %14 = load i64, ptr %13, align 8, !tbaa !32
  %15 = icmp uge i64 %14, %2
  br label %16

16:                                               ; preds = %3, %12
  %.0 = phi i1 [ %15, %12 ], [ false, %3 ]
  ret i1 %.0
}